; ModuleID = '60/491.c'
source_filename = "60/491.c"
target datalayout = "e-m:e-p270:32:32-p271:32:32-p272:64:64-i64:64-f80:128-n8:16:32:64-S128"
target triple = "x86_64-pc-linux-gnu"

@.str = private unnamed_addr constant [3 x i8] c"%d\00", align 1
@.str.1 = private unnamed_addr constant [7 x i8] c"empty\0A\00", align 1
@.str.2 = private unnamed_addr constant [7 x i8] c"%d %d\0A\00", align 1

; Function Attrs: noinline nounwind uwtable
define dso_local void @main() #0 {
  %1 = alloca i32, align 4
  %2 = alloca i32, align 4
  %3 = alloca i32, align 4
  %4 = alloca i32, align 4
  %5 = alloca i32, align 4
  %6 = alloca [2000 x i32], align 16
  store i32 1, i32* %4, align 4
  %7 = call i32 (i8*, ...) @__isoc99_scanf(i8* getelementptr inbounds ([3 x i8], [3 x i8]* @.str, i64 0, i64 0), i32* %2)
  %8 = load i32, i32* %2, align 4
  %9 = icmp slt i32 %8, 5
  br i1 %9, label %10, label %12

10:                                               ; preds = %0
  %11 = call i32 (i8*, ...) @printf(i8* getelementptr inbounds ([7 x i8], [7 x i8]* @.str.1, i64 0, i64 0))
  br label %50

12:                                               ; preds = %0
  store i32 3, i32* %1, align 4
  br label %13

13:                                               ; preds = %46, %12
  %14 = load i32, i32* %1, align 4
  %15 = load i32, i32* %2, align 4
  %16 = add nsw i32 %15, 1
  %17 = icmp slt i32 %14, %16
  br i1 %17, label %18, label %49

18:                                               ; preds = %13
  store i32 0, i32* %5, align 4
  store i32 3, i32* %3, align 4
  br label %19

19:                                               ; preds = %32, %18
  %20 = load i32, i32* %3, align 4
  %21 = load i32, i32* %1, align 4
  %22 = icmp slt i32 %20, %21
  br i1 %22, label %23, label %35

23:                                               ; preds = %19
  %24 = load i32, i32* %1, align 4
  %25 = load i32, i32* %3, align 4
  %26 = srem i32 %24, %25
  %27 = icmp eq i32 %26, 0
  br i1 %27, label %28, label %31

28:                                               ; preds = %23
  %29 = load i32, i32* %5, align 4
  %30 = add nsw i32 %29, 1
  store i32 %30, i32* %5, align 4
  br label %31

31:                                               ; preds = %28, %23
  br label %32

32:                                               ; preds = %31
  %33 = load i32, i32* %3, align 4
  %34 = add nsw i32 %33, 2
  store i32 %34, i32* %3, align 4
  br label %19

35:                                               ; preds = %19
  %36 = load i32, i32* %5, align 4
  %37 = icmp eq i32 %36, 0
  br i1 %37, label %38, label %45

38:                                               ; preds = %35
  %39 = load i32, i32* %1, align 4
  %40 = load i32, i32* %4, align 4
  %41 = sext i32 %40 to i64
  %42 = getelementptr inbounds [2000 x i32], [2000 x i32]* %6, i64 0, i64 %41
  store i32 %39, i32* %42, align 4
  %43 = load i32, i32* %4, align 4
  %44 = add nsw i32 %43, 1
  store i32 %44, i32* %4, align 4
  br label %45

45:                                               ; preds = %38, %35
  br label %46

46:                                               ; preds = %45
  %47 = load i32, i32* %1, align 4
  %48 = add nsw i32 %47, 2
  store i32 %48, i32* %1, align 4
  br label %13

49:                                               ; preds = %13
  br label %50

50:                                               ; preds = %49, %10
  %51 = getelementptr inbounds [2000 x i32], [2000 x i32]* %6, i64 0, i64 0
  store i32 2, i32* %51, align 16
  store i32 0, i32* %3, align 4
  br label %52

52:                                               ; preds = %81, %50
  %53 = load i32, i32* %3, align 4
  %54 = load i32, i32* %4, align 4
  %55 = sub nsw i32 %54, 1
  %56 = icmp slt i32 %53, %55
  br i1 %56, label %57, label %84

57:                                               ; preds = %52
  %58 = load i32, i32* %3, align 4
  %59 = sext i32 %58 to i64
  %60 = getelementptr inbounds [2000 x i32], [2000 x i32]* %6, i64 0, i64 %59
  %61 = load i32, i32* %60, align 4
  %62 = add nsw i32 %61, 2
  %63 = load i32, i32* %3, align 4
  %64 = add nsw i32 %63, 1
  %65 = sext i32 %64 to i64
  %66 = getelementptr inbounds [2000 x i32], [2000 x i32]* %6, i64 0, i64 %65
  %67 = load i32, i32* %66, align 4
  %68 = icmp eq i32 %62, %67
  br i1 %68, label %69, label %80

69:                                               ; preds = %57
  %70 = load i32, i32* %3, align 4
  %71 = sext i32 %70 to i64
  %72 = getelementptr inbounds [2000 x i32], [2000 x i32]* %6, i64 0, i64 %71
  %73 = load i32, i32* %72, align 4
  %74 = load i32, i32* %3, align 4
  %75 = add nsw i32 %74, 1
  %76 = sext i32 %75 to i64
  %77 = getelementptr inbounds [2000 x i32], [2000 x i32]* %6, i64 0, i64 %76
  %78 = load i32, i32* %77, align 4
  %79 = call i32 (i8*, ...) @printf(i8* getelementptr inbounds ([7 x i8], [7 x i8]* @.str.2, i64 0, i64 0), i32 %73, i32 %78)
  br label %80

80:                                               ; preds = %69, %57
  br label %81

81:                                               ; preds = %80
  %82 = load i32, i32* %3, align 4
  %83 = add nsw i32 %82, 1
  store i32 %83, i32* %3, align 4
  br label %52

84:                                               ; preds = %52
  ret void
}

declare dso_local i32 @__isoc99_scanf(i8*, ...) #1

declare dso_local i32 @printf(i8*, ...) #1


!llvm.module.flags = !{!0}
!llvm.ident = !{!1}

!0 = !{i32 1, !"wchar_size", i32 4}
!1 = !{!"clang version 10.0.0-4ubuntu1 "}
